; Function Attrs: nounwind uwtable
define range(i32 -29, 1) i32 @mriStep_NlsInit(ptr noundef %0) local_unnamed_addr #0 {
  %2 = getelementptr inbounds nuw i8, ptr %0, i64 136
  %3 = load ptr, ptr %2, align 8, !tbaa !59
  %4 = icmp eq ptr %3, null
  br i1 %4, label %5, label %6

5:                                                ; preds = %1
  tail call void (ptr, i32, i32, ptr, ptr, ptr, ...) @arkProcessError(ptr noundef nonnull %0, i32 noundef -21, i32 noundef 202, ptr noundef nonnull @__func__.mriStep_NlsInit, ptr noundef nonnull @.str, ptr noundef nonnull @.str.8) #5
  br label %26

6:                                                ; preds = %1
  %7 = getelementptr inbounds nuw i8, ptr %3, i64 432
  %8 = getelementptr inbounds nuw i8, ptr %3, i64 328
  tail call void @llvm.memset.p0.i64(ptr noundef nonnull align 8 dereferenceable(16) %7, i8 0, i64 16, i1 false)
  %9 = load ptr, ptr %8, align 8, !tbaa !60
  %.not = icmp eq ptr %9, null
  %10 = getelementptr inbounds nuw i8, ptr %3, i64 168
  %11 = load ptr, ptr %10, align 8, !tbaa !16
  %.mriStep_NlsLSetup = select i1 %.not, ptr null, ptr @mriStep_NlsLSetup
  %12 = tail call i32 @SUNNonlinSolSetLSetupFn(ptr noundef %11, ptr noundef %.mriStep_NlsLSetup) #5
  %.not20 = icmp eq i32 %12, 0
  br i1 %.not20, label %14, label %13

13:                                               ; preds = %6
  tail call void (ptr, i32, i32, ptr, ptr, ptr, ...) @arkProcessError(ptr noundef nonnull %0, i32 noundef -22, i32 noundef 220, ptr noundef nonnull @__func__.mriStep_NlsInit, ptr noundef nonnull @.str, ptr noundef nonnull @.str.9) #5
  br label %26

14:                                               ; preds = %6
  %15 = getelementptr inbounds nuw i8, ptr %3, i64 336
  %16 = load ptr, ptr %15, align 8, !tbaa !61
  %.not21 = icmp eq ptr %16, null
  %17 = getelementptr inbounds nuw i8, ptr %3, i64 168
  %18 = load ptr, ptr %17, align 8, !tbaa !16
  %.mriStep_NlsLSolve = select i1 %.not21, ptr null, ptr @mriStep_NlsLSolve
  %19 = tail call i32 @SUNNonlinSolSetLSolveFn(ptr noundef %18, ptr noundef %.mriStep_NlsLSolve) #5
  %.not22 = icmp eq i32 %19, 0
  br i1 %.not22, label %21, label %20

20:                                               ; preds = %14
  tail call void (ptr, i32, i32, ptr, ptr, ptr, ...) @arkProcessError(ptr noundef nonnull %0, i32 noundef -22, i32 noundef 233, ptr noundef nonnull @__func__.mriStep_NlsInit, ptr noundef nonnull @.str, ptr noundef nonnull @.str.10) #5
  br label %26

21:                                               ; preds = %14
  %22 = getelementptr inbounds nuw i8, ptr %3, i64 168
  %23 = load ptr, ptr %22, align 8, !tbaa !16
  %24 = tail call i32 @SUNNonlinSolInitialize(ptr noundef %23) #5
  %.not23 = icmp eq i32 %24, 0
  br i1 %.not23, label %26, label %25

25:                                               ; preds = %21
  tail call void (ptr, i32, i32, ptr, ptr, ptr, ...) @arkProcessError(ptr noundef nonnull %0, i32 noundef -22, i32 noundef 242, ptr noundef nonnull @__func__.mriStep_NlsInit, ptr noundef nonnull @.str, ptr noundef nonnull @.str.11) #5
  br label %26

26:                                               ; preds = %21, %25, %20, %13, %5
  %.018 = phi i32 [ -21, %5 ], [ -29, %13 ], [ -29, %20 ], [ -29, %25 ], [ 0, %21 ]
  ret i32 %.018
}